Certificate:
    Data:
        Version: 3 (0x2)
        Serial Number: 4097 (0x1001)
    Signature Algorithm: sha1WithRSAEncryption
        Issuer: C=US, ST=California, L=Claremont, O=Harvey Mudd College, CN=Teerapat Jenrungrot, Fabio Amendola/emailAddress=mjenrungrot@hmc.edu, famendola@hmc.edu
        Validity
            Not Before: Nov 24 13:52:58 2017 GMT
            Not After : Nov 24 13:52:58 2018 GMT
        Subject: C=US, ST=California, L=Claremont, O=Harvey Mudd College, OU=Computer Science, CN=Client VPN/emailAddress=mjenrungrot@hmc.edu, famendola@hmc.edu
        Subject Public Key Info:
            Public Key Algorithm: rsaEncryption
                Public-Key: (1024 bit)
                Modulus:
                    00:cb:04:61:d3:af:4f:02:88:9b:d7:57:1f:9c:60:
                    d8:90:d4:12:5b:c9:96:cb:d1:24:cd:a0:03:0b:32:
                    8f:f7:40:a5:dd:f3:c6:28:8f:dc:db:75:aa:a2:96:
                    53:b4:fd:4b:1b:c6:ff:06:b9:89:30:1d:43:fd:ed:
                    5f:0a:b1:db:47:d5:5e:30:03:d0:55:2c:d7:dd:15:
                    ad:ab:d0:76:9e:35:93:53:31:cd:99:75:69:1d:db:
                    43:9e:78:a9:2e:45:af:59:b3:45:8e:76:11:00:27:
                    65:9c:e8:a3:4a:61:d8:f3:aa:4b:bb:27:4b:a1:19:
                    39:52:9b:d5:d5:e9:3d:78:4b
                Exponent: 65537 (0x10001)
        X509v3 extensions:
            X509v3 Basic Constraints: 
                CA:FALSE
            Netscape Comment: 
                OpenSSL Generated Certificate
            X509v3 Subject Key Identifier: 
                A5:88:ED:28:A2:2A:D9:77:B9:33:AA:4B:90:44:49:93:25:78:27:7F
            X509v3 Authority Key Identifier: 
                keyid:CF:CD:9E:AF:D3:A0:B9:B4:B7:37:95:65:5E:42:05:98:D0:B8:40:FB

    Signature Algorithm: sha1WithRSAEncryption
         75:32:dd:af:8e:74:15:17:43:48:7c:e8:f8:f6:2f:53:96:80:
         68:d7:24:06:5c:4a:21:2e:bf:3c:c5:b2:58:32:77:08:b3:ce:
         9b:e6:5f:e1:94:e8:f2:c7:af:36:4d:70:3c:5f:8d:0b:1a:2c:
         a6:2d:cd:3e:34:c7:39:27:95:f4:8c:8d:5b:f5:7c:eb:da:ad:
         ec:3c:0b:13:6c:cc:64:86:f7:f9:3a:ca:42:96:a8:8b:21:15:
         f0:78:af:9c:cd:0b:d3:40:4f:ba:4e:f6:b7:51:40:d0:ac:6b:
         0f:b6:07:b6:b6:fb:66:b9:68:a3:5a:c8:68:6f:ee:60:91:7a:
         6f:48
-----BEGIN CERTIFICATE-----
MIIDaDCCAtGgAwIBAgICEAEwDQYJKoZIhvcNAQEFBQAwgbkxCzAJBgNVBAYTAlVT
MRMwEQYDVQQIDApDYWxpZm9ybmlhMRIwEAYDVQQHDAlDbGFyZW1vbnQxHDAaBgNV
BAoME0hhcnZleSBNdWRkIENvbGxlZ2UxLDAqBgNVBAMMI1RlZXJhcGF0IEplbnJ1
bmdyb3QsIEZhYmlvIEFtZW5kb2xhMTUwMwYJKoZIhvcNAQkBFiZtamVucnVuZ3Jv
dEBobWMuZWR1LCBmYW1lbmRvbGFAaG1jLmVkdTAeFw0xNzExMjQxMzUyNThaFw0x
ODExMjQxMzUyNThaMIG7MQswCQYDVQQGEwJVUzETMBEGA1UECAwKQ2FsaWZvcm5p
YTESMBAGA1UEBwwJQ2xhcmVtb250MRwwGgYDVQQKDBNIYXJ2ZXkgTXVkZCBDb2xs
ZWdlMRkwFwYDVQQLDBBDb21wdXRlciBTY2llbmNlMRMwEQYDVQQDDApDbGllbnQg
VlBOMTUwMwYJKoZIhvcNAQkBFiZtamVucnVuZ3JvdEBobWMuZWR1LCBmYW1lbmRv
bGFAaG1jLmVkdTCBnzANBgkqhkiG9w0BAQEFAAOBjQAwgYkCgYEAywRh069PAoib
11cfnGDYkNQSW8mWy9EkzaADCzKP90Cl3fPGKI/c23WqopZTtP1LG8b/BrmJMB1D
/e1fCrHbR9VeMAPQVSzX3RWtq9B2njWTUzHNmXVpHdtDnnipLkWvWbNFjnYRACdl
nOijSmHY86pLuydLoRk5UpvV1ek9eEsCAwEAAaN7MHkwCQYDVR0TBAIwADAsBglg
hkgBhvhCAQ0EHxYdT3BlblNTTCBHZW5lcmF0ZWQgQ2VydGlmaWNhdGUwHQYDVR0O
BBYEFKWI7SiiKtl3uTOqS5BESZMleCd/MB8GA1UdIwQYMBaAFM/Nnq/ToLm0tzeV
ZV5CBZjQuED7MA0GCSqGSIb3DQEBBQUAA4GBAHUy3a+OdBUXQ0h86Pj2L1OWgGjX
JAZcSiEuvzzFslgydwizzpvmX+GU6PLHrzZNcDxfjQsaLKYtzT40xzknlfSMjVv1
fOvarew8CxNszGSG9/k6ykKWqIshFfB4r5zNC9NAT7pO9rdRQNCsaw+2B7a2+2a5
aKNayGhv7mCRem9I
-----END CERTIFICATE-----
